target datalayout = "e-m:e-p270:32:32-p271:32:32-p272:64:64-i64:64-i128:128-f80:128-n8:16:32:64-S128"
target triple = "x86_64-pc-linux-gnu"

%struct.SDL_BlitInfo = type { ptr, ptr, i32, i32, i32, i32, ptr, ptr, i32, i32, i32, i32, ptr, ptr, ptr, ptr, ptr, ptr, i32, i32, i8, i8, i8, i8 }

; Function Attrs: nounwind uwtable
define internal void @SDL_Blit_XRGB8888_ABGR8888_Modulate(ptr noundef %0) #0 {
  %2 = alloca ptr, align 8
  %3 = alloca i32, align 4
  %4 = alloca i32, align 4
  %5 = alloca i32, align 4
  %6 = alloca i32, align 4
  %7 = alloca i32, align 4
  %8 = alloca i32, align 4
  %9 = alloca i32, align 4
  %10 = alloca i32, align 4
  %11 = alloca i32, align 4
  %12 = alloca i32, align 4
  %13 = alloca ptr, align 8
  %14 = alloca ptr, align 8
  %15 = alloca i32, align 4
  %16 = alloca i16, align 2
  %17 = alloca i16, align 2
  %18 = alloca i16, align 2
  store ptr %0, ptr %2, align 8
  call void @llvm.lifetime.start.p0(i64 4, ptr %3) #2
  %19 = load ptr, ptr %2, align 8
  %20 = getelementptr inbounds nuw %struct.SDL_BlitInfo, ptr %19, i32 0, i32 18
  %21 = load i32, ptr %20, align 8
  store i32 %21, ptr %3, align 4
  call void @llvm.lifetime.start.p0(i64 4, ptr %4) #2
  %22 = load ptr, ptr %2, align 8
  %23 = getelementptr inbounds nuw %struct.SDL_BlitInfo, ptr %22, i32 0, i32 20
  %24 = load i8, ptr %23, align 8
  %25 = zext i8 %24 to i32
  store i32 %25, ptr %4, align 4
  call void @llvm.lifetime.start.p0(i64 4, ptr %5) #2
  %26 = load ptr, ptr %2, align 8
  %27 = getelementptr inbounds nuw %struct.SDL_BlitInfo, ptr %26, i32 0, i32 21
  %28 = load i8, ptr %27, align 1
  %29 = zext i8 %28 to i32
  store i32 %29, ptr %5, align 4
  call void @llvm.lifetime.start.p0(i64 4, ptr %6) #2
  %30 = load ptr, ptr %2, align 8
  %31 = getelementptr inbounds nuw %struct.SDL_BlitInfo, ptr %30, i32 0, i32 22
  %32 = load i8, ptr %31, align 2
  %33 = zext i8 %32 to i32
  store i32 %33, ptr %6, align 4
  call void @llvm.lifetime.start.p0(i64 4, ptr %7) #2
  %34 = load ptr, ptr %2, align 8
  %35 = getelementptr inbounds nuw %struct.SDL_BlitInfo, ptr %34, i32 0, i32 23
  %36 = load i8, ptr %35, align 1
  %37 = zext i8 %36 to i32
  store i32 %37, ptr %7, align 4
  call void @llvm.lifetime.start.p0(i64 4, ptr %8) #2
  call void @llvm.lifetime.start.p0(i64 4, ptr %9) #2
  %38 = load i32, ptr %3, align 4
  %39 = and i32 %38, 2
  %40 = icmp ne i32 %39, 0
  br i1 %40, label %41, label %43

41:                                               ; preds = %1
  %42 = load i32, ptr %7, align 4
  br label %44

43:                                               ; preds = %1
  br label %44

44:                                               ; preds = %43, %41
  %45 = phi i32 [ %42, %41 ], [ 255, %43 ]
  store i32 %45, ptr %9, align 4
  call void @llvm.lifetime.start.p0(i64 4, ptr %10) #2
  call void @llvm.lifetime.start.p0(i64 4, ptr %11) #2
  call void @llvm.lifetime.start.p0(i64 4, ptr %12) #2
  br label %46

46:                                               ; preds = %164, %44
  %47 = load ptr, ptr %2, align 8
  %48 = getelementptr inbounds nuw %struct.SDL_BlitInfo, ptr %47, i32 0, i32 9
  %49 = load i32, ptr %48, align 4
  %50 = add nsw i32 %49, -1
  store i32 %50, ptr %48, align 4
  %51 = icmp ne i32 %49, 0
  br i1 %51, label %52, label %181

52:                                               ; preds = %46
  call void @llvm.lifetime.start.p0(i64 8, ptr %13) #2
  %53 = load ptr, ptr %2, align 8
  %54 = getelementptr inbounds nuw %struct.SDL_BlitInfo, ptr %53, i32 0, i32 1
  %55 = load ptr, ptr %54, align 8
  store ptr %55, ptr %13, align 8
  call void @llvm.lifetime.start.p0(i64 8, ptr %14) #2
  %56 = load ptr, ptr %2, align 8
  %57 = getelementptr inbounds nuw %struct.SDL_BlitInfo, ptr %56, i32 0, i32 7
  %58 = load ptr, ptr %57, align 8
  store ptr %58, ptr %14, align 8
  call void @llvm.lifetime.start.p0(i64 4, ptr %15) #2
  %59 = load ptr, ptr %2, align 8
  %60 = getelementptr inbounds nuw %struct.SDL_BlitInfo, ptr %59, i32 0, i32 8
  %61 = load i32, ptr %60, align 8
  store i32 %61, ptr %15, align 4
  br label %62

62:                                               ; preds = %147, %52
  %63 = load i32, ptr %15, align 4
  %64 = add nsw i32 %63, -1
  store i32 %64, ptr %15, align 4
  %65 = icmp ne i32 %63, 0
  br i1 %65, label %66, label %164

66:                                               ; preds = %62
  %67 = load ptr, ptr %13, align 8
  %68 = load i32, ptr %67, align 4
  store i32 %68, ptr %8, align 4
  %69 = load i32, ptr %8, align 4
  %70 = lshr i32 %69, 16
  %71 = trunc i32 %70 to i8
  %72 = zext i8 %71 to i32
  store i32 %72, ptr %10, align 4
  %73 = load i32, ptr %8, align 4
  %74 = lshr i32 %73, 8
  %75 = trunc i32 %74 to i8
  %76 = zext i8 %75 to i32
  store i32 %76, ptr %11, align 4
  %77 = load i32, ptr %8, align 4
  %78 = trunc i32 %77 to i8
  %79 = zext i8 %78 to i32
  store i32 %79, ptr %12, align 4
  %80 = load i32, ptr %3, align 4
  %81 = and i32 %80, 1
  %82 = icmp ne i32 %81, 0
  br i1 %82, label %83, label %147

83:                                               ; preds = %66
  br label %84

84:                                               ; preds = %83
  call void @llvm.lifetime.start.p0(i64 2, ptr %16) #2
  %85 = load i32, ptr %10, align 4
  %86 = load i32, ptr %4, align 4
  %87 = mul i32 %85, %86
  %88 = trunc i32 %87 to i16
  store i16 %88, ptr %16, align 2
  %89 = load i16, ptr %16, align 2
  %90 = zext i16 %89 to i32
  %91 = add i32 %90, 1
  %92 = trunc i32 %91 to i16
  store i16 %92, ptr %16, align 2
  %93 = load i16, ptr %16, align 2
  %94 = zext i16 %93 to i32
  %95 = ashr i32 %94, 8
  %96 = load i16, ptr %16, align 2
  %97 = zext i16 %96 to i32
  %98 = add nsw i32 %97, %95
  %99 = trunc i32 %98 to i16
  store i16 %99, ptr %16, align 2
  %100 = load i16, ptr %16, align 2
  %101 = zext i16 %100 to i32
  %102 = ashr i32 %101, 8
  store i32 %102, ptr %10, align 4
  call void @llvm.lifetime.end.p0(i64 2, ptr %16) #2
  br label %103

103:                                              ; preds = %84
  br label %104

104:                                              ; preds = %103
  br label %105

105:                                              ; preds = %104
  call void @llvm.lifetime.start.p0(i64 2, ptr %17) #2
  %106 = load i32, ptr %11, align 4
  %107 = load i32, ptr %5, align 4
  %108 = mul i32 %106, %107
  %109 = trunc i32 %108 to i16
  store i16 %109, ptr %17, align 2
  %110 = load i16, ptr %17, align 2
  %111 = zext i16 %110 to i32
  %112 = add i32 %111, 1
  %113 = trunc i32 %112 to i16
  store i16 %113, ptr %17, align 2
  %114 = load i16, ptr %17, align 2
  %115 = zext i16 %114 to i32
  %116 = ashr i32 %115, 8
  %117 = load i16, ptr %17, align 2
  %118 = zext i16 %117 to i32
  %119 = add nsw i32 %118, %116
  %120 = trunc i32 %119 to i16
  store i16 %120, ptr %17, align 2
  %121 = load i16, ptr %17, align 2
  %122 = zext i16 %121 to i32
  %123 = ashr i32 %122, 8
  store i32 %123, ptr %11, align 4
  call void @llvm.lifetime.end.p0(i64 2, ptr %17) #2
  br label %124

124:                                              ; preds = %105
  br label %125

125:                                              ; preds = %124
  br label %126

126:                                              ; preds = %125
  call void @llvm.lifetime.start.p0(i64 2, ptr %18) #2
  %127 = load i32, ptr %12, align 4
  %128 = load i32, ptr %6, align 4
  %129 = mul i32 %127, %128
  %130 = trunc i32 %129 to i16
  store i16 %130, ptr %18, align 2
  %131 = load i16, ptr %18, align 2
  %132 = zext i16 %131 to i32
  %133 = add i32 %132, 1
  %134 = trunc i32 %133 to i16
  store i16 %134, ptr %18, align 2
  %135 = load i16, ptr %18, align 2
  %136 = zext i16 %135 to i32
  %137 = ashr i32 %136, 8
  %138 = load i16, ptr %18, align 2
  %139 = zext i16 %138 to i32
  %140 = add nsw i32 %139, %137
  %141 = trunc i32 %140 to i16
  store i16 %141, ptr %18, align 2
  %142 = load i16, ptr %18, align 2
  %143 = zext i16 %142 to i32
  %144 = ashr i32 %143, 8
  store i32 %144, ptr %12, align 4
  call void @llvm.lifetime.end.p0(i64 2, ptr %18) #2
  br label %145

145:                                              ; preds = %126
  br label %146

146:                                              ; preds = %145
  br label %147

147:                                              ; preds = %146, %66
  %148 = load i32, ptr %9, align 4
  %149 = shl i32 %148, 24
  %150 = load i32, ptr %12, align 4
  %151 = shl i32 %150, 16
  %152 = or i32 %149, %151
  %153 = load i32, ptr %11, align 4
  %154 = shl i32 %153, 8
  %155 = or i32 %152, %154
  %156 = load i32, ptr %10, align 4
  %157 = or i32 %155, %156
  store i32 %157, ptr %8, align 4
  %158 = load i32, ptr %8, align 4
  %159 = load ptr, ptr %14, align 8
  store i32 %158, ptr %159, align 4
  %160 = load ptr, ptr %13, align 8
  %161 = getelementptr inbounds nuw i32, ptr %160, i32 1
  store ptr %161, ptr %13, align 8
  %162 = load ptr, ptr %14, align 8
  %163 = getelementptr inbounds nuw i32, ptr %162, i32 1
  store ptr %163, ptr %14, align 8
  br label %62, !llvm.loop !52

164:                                              ; preds = %62
  %165 = load ptr, ptr %2, align 8
  %166 = getelementptr inbounds nuw %struct.SDL_BlitInfo, ptr %165, i32 0, i32 4
  %167 = load i32, ptr %166, align 8
  %168 = load ptr, ptr %2, align 8
  %169 = getelementptr inbounds nuw %struct.SDL_BlitInfo, ptr %168, i32 0, i32 1
  %170 = load ptr, ptr %169, align 8
  %171 = sext i32 %167 to i64
  %172 = getelementptr inbounds i8, ptr %170, i64 %171
  store ptr %172, ptr %169, align 8
  %173 = load ptr, ptr %2, align 8
  %174 = getelementptr inbounds nuw %struct.SDL_BlitInfo, ptr %173, i32 0, i32 10
  %175 = load i32, ptr %174, align 8
  %176 = load ptr, ptr %2, align 8
  %177 = getelementptr inbounds nuw %struct.SDL_BlitInfo, ptr %176, i32 0, i32 7
  %178 = load ptr, ptr %177, align 8
  %179 = sext i32 %175 to i64
  %180 = getelementptr inbounds i8, ptr %178, i64 %179
  store ptr %180, ptr %177, align 8
  call void @llvm.lifetime.end.p0(i64 4, ptr %15) #2
  call void @llvm.lifetime.end.p0(i64 8, ptr %14) #2
  call void @llvm.lifetime.end.p0(i64 8, ptr %13) #2
  br label %46, !llvm.loop !53

181:                                              ; preds = %46
  call void @llvm.lifetime.end.p0(i64 4, ptr %12) #2
  call void @llvm.lifetime.end.p0(i64 4, ptr %11) #2
  call void @llvm.lifetime.end.p0(i64 4, ptr %10) #2
  call void @llvm.lifetime.end.p0(i64 4, ptr %9) #2
  call void @llvm.lifetime.end.p0(i64 4, ptr %8) #2
  call void @llvm.lifetime.end.p0(i64 4, ptr %7) #2
  call void @llvm.lifetime.end.p0(i64 4, ptr %6) #2
  call void @llvm.lifetime.end.p0(i64 4, ptr %5) #2
  call void @llvm.lifetime.end.p0(i64 4, ptr %4) #2
  call void @llvm.lifetime.end.p0(i64 4, ptr %3) #2
  ret void
}